; ModuleID = '5/461.c'
source_filename = "5/461.c"
target datalayout = "e-m:e-p270:32:32-p271:32:32-p272:64:64-i64:64-f80:128-n8:16:32:64-S128"
target triple = "x86_64-pc-linux-gnu"

@__const.main.st = private unnamed_addr constant [5 x i8] c"ATGC\00", align 1
@.str = private unnamed_addr constant [4 x i8] c"%lf\00", align 1
@.str.1 = private unnamed_addr constant [6 x i8] c"%s\0A%s\00", align 1
@.str.2 = private unnamed_addr constant [6 x i8] c"error\00", align 1
@.str.3 = private unnamed_addr constant [4 x i8] c"yes\00", align 1
@.str.4 = private unnamed_addr constant [3 x i8] c"no\00", align 1

; Function Attrs: noinline nounwind uwtable
define dso_local i32 @main() #0 {
  %1 = alloca i32, align 4
  %2 = alloca [500 x i8], align 16
  %3 = alloca [500 x i8], align 16
  %4 = alloca [5 x i8], align 1
  %5 = alloca i32, align 4
  %6 = alloca i32, align 4
  %7 = alloca i32, align 4
  %8 = alloca i32, align 4
  %9 = alloca double, align 8
  %10 = alloca double, align 8
  %11 = alloca i32, align 4
  store i32 0, i32* %1, align 4
  %12 = bitcast [5 x i8]* %4 to i8*
  call void @llvm.memcpy.p0i8.p0i8.i64(i8* align 1 %12, i8* align 1 getelementptr inbounds ([5 x i8], [5 x i8]* @__const.main.st, i32 0, i32 0), i64 5, i1 false)
  store i32 0, i32* %8, align 4
  %13 = call i32 (i8*, ...) @__isoc99_scanf(i8* getelementptr inbounds ([4 x i8], [4 x i8]* @.str, i64 0, i64 0), double* %9)
  %14 = getelementptr inbounds [500 x i8], [500 x i8]* %2, i64 0, i64 0
  %15 = getelementptr inbounds [500 x i8], [500 x i8]* %3, i64 0, i64 0
  %16 = call i32 (i8*, ...) @__isoc99_scanf(i8* getelementptr inbounds ([6 x i8], [6 x i8]* @.str.1, i64 0, i64 0), i8* %14, i8* %15)
  %17 = getelementptr inbounds [500 x i8], [500 x i8]* %2, i64 0, i64 0
  %18 = call i64 @strlen(i8* %17) #4
  %19 = trunc i64 %18 to i32
  store i32 %19, i32* %5, align 4
  %20 = getelementptr inbounds [500 x i8], [500 x i8]* %3, i64 0, i64 0
  %21 = call i64 @strlen(i8* %20) #4
  %22 = trunc i64 %21 to i32
  store i32 %22, i32* %6, align 4
  store i32 0, i32* %11, align 4
  %23 = load i32, i32* %5, align 4
  %24 = load i32, i32* %6, align 4
  %25 = icmp ne i32 %23, %24
  br i1 %25, label %26, label %28

26:                                               ; preds = %0
  %27 = call i32 (i8*, ...) @printf(i8* getelementptr inbounds ([6 x i8], [6 x i8]* @.str.2, i64 0, i64 0))
  store i32 1, i32* %11, align 4
  br label %28

28:                                               ; preds = %26, %0
  %29 = load i32, i32* %11, align 4
  %30 = icmp eq i32 %29, 0
  br i1 %30, label %31, label %83

31:                                               ; preds = %28
  store i32 0, i32* %7, align 4
  br label %32

32:                                               ; preds = %79, %31
  %33 = load i32, i32* %7, align 4
  %34 = load i32, i32* %5, align 4
  %35 = icmp slt i32 %33, %34
  br i1 %35, label %36, label %82

36:                                               ; preds = %32
  %37 = load i32, i32* %7, align 4
  %38 = sext i32 %37 to i64
  %39 = getelementptr inbounds [500 x i8], [500 x i8]* %2, i64 0, i64 %38
  %40 = load i8, i8* %39, align 1
  %41 = sext i8 %40 to i32
  %42 = getelementptr inbounds [5 x i8], [5 x i8]* %4, i64 0, i64 0
  %43 = load i8, i8* %42, align 1
  %44 = sext i8 %43 to i32
  %45 = icmp ne i32 %41, %44
  br i1 %45, label %46, label %78

46:                                               ; preds = %36
  %47 = load i32, i32* %7, align 4
  %48 = sext i32 %47 to i64
  %49 = getelementptr inbounds [500 x i8], [500 x i8]* %2, i64 0, i64 %48
  %50 = load i8, i8* %49, align 1
  %51 = sext i8 %50 to i32
  %52 = getelementptr inbounds [5 x i8], [5 x i8]* %4, i64 0, i64 1
  %53 = load i8, i8* %52, align 1
  %54 = sext i8 %53 to i32
  %55 = icmp ne i32 %51, %54
  br i1 %55, label %56, label %78

56:                                               ; preds = %46
  %57 = load i32, i32* %7, align 4
  %58 = sext i32 %57 to i64
  %59 = getelementptr inbounds [500 x i8], [500 x i8]* %2, i64 0, i64 %58
  %60 = load i8, i8* %59, align 1
  %61 = sext i8 %60 to i32
  %62 = getelementptr inbounds [5 x i8], [5 x i8]* %4, i64 0, i64 2
  %63 = load i8, i8* %62, align 1
  %64 = sext i8 %63 to i32
  %65 = icmp ne i32 %61, %64
  br i1 %65, label %66, label %78

66:                                               ; preds = %56
  %67 = load i32, i32* %7, align 4
  %68 = sext i32 %67 to i64
  %69 = getelementptr inbounds [500 x i8], [500 x i8]* %2, i64 0, i64 %68
  %70 = load i8, i8* %69, align 1
  %71 = sext i8 %70 to i32
  %72 = getelementptr inbounds [5 x i8], [5 x i8]* %4, i64 0, i64 3
  %73 = load i8, i8* %72, align 1
  %74 = sext i8 %73 to i32
  %75 = icmp ne i32 %71, %74
  br i1 %75, label %76, label %78

76:                                               ; preds = %66
  %77 = call i32 (i8*, ...) @printf(i8* getelementptr inbounds ([6 x i8], [6 x i8]* @.str.2, i64 0, i64 0))
  store i32 1, i32* %11, align 4
  br label %82

78:                                               ; preds = %66, %56, %46, %36
  br label %79

79:                                               ; preds = %78
  %80 = load i32, i32* %7, align 4
  %81 = add nsw i32 %80, 1
  store i32 %81, i32* %7, align 4
  br label %32

82:                                               ; preds = %76, %32
  br label %83

83:                                               ; preds = %82, %28
  %84 = load i32, i32* %11, align 4
  %85 = icmp eq i32 %84, 0
  br i1 %85, label %86, label %138

86:                                               ; preds = %83
  store i32 0, i32* %7, align 4
  br label %87

87:                                               ; preds = %134, %86
  %88 = load i32, i32* %7, align 4
  %89 = load i32, i32* %6, align 4
  %90 = icmp slt i32 %88, %89
  br i1 %90, label %91, label %137

91:                                               ; preds = %87
  %92 = load i32, i32* %7, align 4
  %93 = sext i32 %92 to i64
  %94 = getelementptr inbounds [500 x i8], [500 x i8]* %3, i64 0, i64 %93
  %95 = load i8, i8* %94, align 1
  %96 = sext i8 %95 to i32
  %97 = getelementptr inbounds [5 x i8], [5 x i8]* %4, i64 0, i64 0
  %98 = load i8, i8* %97, align 1
  %99 = sext i8 %98 to i32
  %100 = icmp ne i32 %96, %99
  br i1 %100, label %101, label %133

101:                                              ; preds = %91
  %102 = load i32, i32* %7, align 4
  %103 = sext i32 %102 to i64
  %104 = getelementptr inbounds [500 x i8], [500 x i8]* %3, i64 0, i64 %103
  %105 = load i8, i8* %104, align 1
  %106 = sext i8 %105 to i32
  %107 = getelementptr inbounds [5 x i8], [5 x i8]* %4, i64 0, i64 1
  %108 = load i8, i8* %107, align 1
  %109 = sext i8 %108 to i32
  %110 = icmp ne i32 %106, %109
  br i1 %110, label %111, label %133

111:                                              ; preds = %101
  %112 = load i32, i32* %7, align 4
  %113 = sext i32 %112 to i64
  %114 = getelementptr inbounds [500 x i8], [500 x i8]* %3, i64 0, i64 %113
  %115 = load i8, i8* %114, align 1
  %116 = sext i8 %115 to i32
  %117 = getelementptr inbounds [5 x i8], [5 x i8]* %4, i64 0, i64 2
  %118 = load i8, i8* %117, align 1
  %119 = sext i8 %118 to i32
  %120 = icmp ne i32 %116, %119
  br i1 %120, label %121, label %133

121:                                              ; preds = %111
  %122 = load i32, i32* %7, align 4
  %123 = sext i32 %122 to i64
  %124 = getelementptr inbounds [500 x i8], [500 x i8]* %3, i64 0, i64 %123
  %125 = load i8, i8* %124, align 1
  %126 = sext i8 %125 to i32
  %127 = getelementptr inbounds [5 x i8], [5 x i8]* %4, i64 0, i64 3
  %128 = load i8, i8* %127, align 1
  %129 = sext i8 %128 to i32
  %130 = icmp ne i32 %126, %129
  br i1 %130, label %131, label %133

131:                                              ; preds = %121
  %132 = call i32 (i8*, ...) @printf(i8* getelementptr inbounds ([6 x i8], [6 x i8]* @.str.2, i64 0, i64 0))
  store i32 1, i32* %11, align 4
  br label %137

133:                                              ; preds = %121, %111, %101, %91
  br label %134

134:                                              ; preds = %133
  %135 = load i32, i32* %7, align 4
  %136 = add nsw i32 %135, 1
  store i32 %136, i32* %7, align 4
  br label %87

137:                                              ; preds = %131, %87
  br label %138

138:                                              ; preds = %137, %83
  %139 = load i32, i32* %11, align 4
  %140 = icmp eq i32 %139, 0
  br i1 %140, label %141, label %179

141:                                              ; preds = %138
  store i32 0, i32* %7, align 4
  br label %142

142:                                              ; preds = %162, %141
  %143 = load i32, i32* %7, align 4
  %144 = load i32, i32* %5, align 4
  %145 = icmp slt i32 %143, %144
  br i1 %145, label %146, label %165

146:                                              ; preds = %142
  %147 = load i32, i32* %7, align 4
  %148 = sext i32 %147 to i64
  %149 = getelementptr inbounds [500 x i8], [500 x i8]* %2, i64 0, i64 %148
  %150 = load i8, i8* %149, align 1
  %151 = sext i8 %150 to i32
  %152 = load i32, i32* %7, align 4
  %153 = sext i32 %152 to i64
  %154 = getelementptr inbounds [500 x i8], [500 x i8]* %3, i64 0, i64 %153
  %155 = load i8, i8* %154, align 1
  %156 = sext i8 %155 to i32
  %157 = icmp eq i32 %151, %156
  br i1 %157, label %158, label %161

158:                                              ; preds = %146
  %159 = load i32, i32* %8, align 4
  %160 = add nsw i32 %159, 1
  store i32 %160, i32* %8, align 4
  br label %161

161:                                              ; preds = %158, %146
  br label %162

162:                                              ; preds = %161
  %163 = load i32, i32* %7, align 4
  %164 = add nsw i32 %163, 1
  store i32 %164, i32* %7, align 4
  br label %142

165:                                              ; preds = %142
  %166 = load i32, i32* %8, align 4
  %167 = sitofp i32 %166 to double
  %168 = load i32, i32* %5, align 4
  %169 = sitofp i32 %168 to double
  %170 = fdiv double %167, %169
  store double %170, double* %10, align 8
  %171 = load double, double* %10, align 8
  %172 = load double, double* %9, align 8
  %173 = fcmp ogt double %171, %172
  br i1 %173, label %174, label %176

174:                                              ; preds = %165
  %175 = call i32 (i8*, ...) @printf(i8* getelementptr inbounds ([4 x i8], [4 x i8]* @.str.3, i64 0, i64 0))
  br label %178

176:                                              ; preds = %165
  %177 = call i32 (i8*, ...) @printf(i8* getelementptr inbounds ([3 x i8], [3 x i8]* @.str.4, i64 0, i64 0))
  br label %178

178:                                              ; preds = %176, %174
  br label %179

179:                                              ; preds = %178, %138
  ret i32 0
}

; Function Attrs: argmemonly nounwind willreturn
declare void @llvm.memcpy.p0i8.p0i8.i64(i8* noalias nocapture writeonly, i8* noalias nocapture readonly, i64, i1 immarg) #1

declare dso_local i32 @__isoc99_scanf(i8*, ...) #2

; Function Attrs: nounwind readonly
declare dso_local i64 @strlen(i8*) #3

declare dso_local i32 @printf(i8*, ...) #2


!llvm.module.flags = !{!0}
!llvm.ident = !{!1}

!0 = !{i32 1, !"wchar_size", i32 4}
!1 = !{!"clang version 10.0.0-4ubuntu1 "}
